target datalayout = "e-m:e-p270:32:32-p271:32:32-p272:64:64-i64:64-i128:128-f80:128-n8:16:32:64-S128"
target triple = "x86_64-pc-linux-gnu"

@.str.22 = private unnamed_addr constant [9 x i8] c"_HOOKKEY\00", align 1
@.str.28 = private unnamed_addr constant [15 x i8] c"stack overflow\00", align 1
@.str.53 = private unnamed_addr constant [2 x i8] c"k\00", align 1
@.str.54 = private unnamed_addr constant [7 x i8] c"__mode\00", align 1

; Function Attrs: nounwind uwtable
define internal void @checkstack(ptr noundef %0, ptr noundef %1, i32 noundef %2) #0 {
  %4 = alloca ptr, align 8
  %5 = alloca ptr, align 8
  %6 = alloca i32, align 4
  store ptr %0, ptr %4, align 8, !tbaa !4
  store ptr %1, ptr %5, align 8, !tbaa !4
  store i32 %2, ptr %6, align 4, !tbaa !11
  %7 = load ptr, ptr %4, align 8, !tbaa !4
  %8 = load ptr, ptr %5, align 8, !tbaa !4
  %9 = icmp ne ptr %7, %8
  br i1 %9, label %10, label %16

10:                                               ; preds = %3
  %11 = load ptr, ptr %5, align 8, !tbaa !4
  %12 = load i32, ptr %6, align 4, !tbaa !11
  %13 = call i32 @lua_checkstack(ptr noundef %11, i32 noundef %12)
  %14 = icmp ne i32 %13, 0
  %15 = xor i1 %14, true
  br label %16

16:                                               ; preds = %10, %3
  %17 = phi i1 [ false, %3 ], [ %15, %10 ]
  %18 = zext i1 %17 to i32
  %19 = icmp ne i32 %18, 0
  %20 = zext i1 %19 to i32
  %21 = sext i32 %20 to i64
  %22 = call i64 @llvm.expect.i64(i64 %21, i64 0)
  %23 = icmp ne i64 %22, 0
  br i1 %23, label %24, label %27

24:                                               ; preds = %16
  %25 = load ptr, ptr %4, align 8, !tbaa !4
  %26 = call i32 (ptr, ptr, ...) @luaL_error(ptr noundef %25, ptr noundef @.str.28)
  br label %27

27:                                               ; preds = %24, %16
  ret void
}

; Function Attrs: nounwind uwtable
define internal i32 @makemask(ptr noundef %0, i32 noundef %1) #0 {
  %3 = alloca ptr, align 8
  %4 = alloca i32, align 4
  %5 = alloca i32, align 4
  store ptr %0, ptr %3, align 8, !tbaa !14
  store i32 %1, ptr %4, align 4, !tbaa !11
  call void @llvm.lifetime.start.p0(i64 4, ptr %5) #6
  store i32 0, ptr %5, align 4, !tbaa !11
  %6 = load ptr, ptr %3, align 8, !tbaa !14
  %7 = call ptr @strchr(ptr noundef %6, i32 noundef 99) #7
  %8 = icmp ne ptr %7, null
  br i1 %8, label %9, label %12

9:                                                ; preds = %2
  %10 = load i32, ptr %5, align 4, !tbaa !11
  %11 = or i32 %10, 1
  store i32 %11, ptr %5, align 4, !tbaa !11
  br label %12

12:                                               ; preds = %9, %2
  %13 = load ptr, ptr %3, align 8, !tbaa !14
  %14 = call ptr @strchr(ptr noundef %13, i32 noundef 114) #7
  %15 = icmp ne ptr %14, null
  br i1 %15, label %16, label %19

16:                                               ; preds = %12
  %17 = load i32, ptr %5, align 4, !tbaa !11
  %18 = or i32 %17, 2
  store i32 %18, ptr %5, align 4, !tbaa !11
  br label %19

19:                                               ; preds = %16, %12
  %20 = load ptr, ptr %3, align 8, !tbaa !14
  %21 = call ptr @strchr(ptr noundef %20, i32 noundef 108) #7
  %22 = icmp ne ptr %21, null
  br i1 %22, label %23, label %26

23:                                               ; preds = %19
  %24 = load i32, ptr %5, align 4, !tbaa !11
  %25 = or i32 %24, 4
  store i32 %25, ptr %5, align 4, !tbaa !11
  br label %26

26:                                               ; preds = %23, %19
  %27 = load i32, ptr %4, align 4, !tbaa !11
  %28 = icmp sgt i32 %27, 0
  br i1 %28, label %29, label %32

29:                                               ; preds = %26
  %30 = load i32, ptr %5, align 4, !tbaa !11
  %31 = or i32 %30, 8
  store i32 %31, ptr %5, align 4, !tbaa !11
  br label %32

32:                                               ; preds = %29, %26
  %33 = load i32, ptr %5, align 4, !tbaa !11
  call void @llvm.lifetime.end.p0(i64 4, ptr %5) #6
  ret i32 %33
}

; Function Attrs: nounwind uwtable
define internal ptr @getthread(ptr noundef %0, ptr noundef %1) #0 {
  %3 = alloca ptr, align 8
  %4 = alloca ptr, align 8
  %5 = alloca ptr, align 8
  store ptr %0, ptr %4, align 8, !tbaa !4
  store ptr %1, ptr %5, align 8, !tbaa !35
  %6 = load ptr, ptr %4, align 8, !tbaa !4
  %7 = call i32 @lua_type(ptr noundef %6, i32 noundef 1)
  %8 = icmp eq i32 %7, 8
  br i1 %8, label %9, label %13

9:                                                ; preds = %2
  %10 = load ptr, ptr %5, align 8, !tbaa !35
  store i32 1, ptr %10, align 4, !tbaa !11
  %11 = load ptr, ptr %4, align 8, !tbaa !4
  %12 = call ptr @lua_tothread(ptr noundef %11, i32 noundef 1)
  store ptr %12, ptr %3, align 8
  br label %16

13:                                               ; preds = %2
  %14 = load ptr, ptr %5, align 8, !tbaa !35
  store i32 0, ptr %14, align 4, !tbaa !11
  %15 = load ptr, ptr %4, align 8, !tbaa !4
  store ptr %15, ptr %3, align 8
  br label %16

16:                                               ; preds = %13, %9
  %17 = load ptr, ptr %3, align 8
  ret ptr %17
}

; Function Attrs: nounwind uwtable
define internal i32 @db_sethook(ptr noundef %0) #0 {
  %2 = alloca ptr, align 8
  %3 = alloca i32, align 4
  %4 = alloca i32, align 4
  %5 = alloca i32, align 4
  %6 = alloca ptr, align 8
  %7 = alloca ptr, align 8
  %8 = alloca ptr, align 8
  store ptr %0, ptr %2, align 8, !tbaa !4
  call void @llvm.lifetime.start.p0(i64 4, ptr %3) #6
  call void @llvm.lifetime.start.p0(i64 4, ptr %4) #6
  call void @llvm.lifetime.start.p0(i64 4, ptr %5) #6
  call void @llvm.lifetime.start.p0(i64 8, ptr %6) #6
  call void @llvm.lifetime.start.p0(i64 8, ptr %7) #6
  %9 = load ptr, ptr %2, align 8, !tbaa !4
  %10 = call ptr @getthread(ptr noundef %9, ptr noundef %3)
  store ptr %10, ptr %7, align 8, !tbaa !4
  %11 = load ptr, ptr %2, align 8, !tbaa !4
  %12 = load i32, ptr %3, align 4, !tbaa !11
  %13 = add nsw i32 %12, 1
  %14 = call i32 @lua_type(ptr noundef %11, i32 noundef %13)
  %15 = icmp sle i32 %14, 0
  br i1 %15, label %16, label %20

16:                                               ; preds = %1
  %17 = load ptr, ptr %2, align 8, !tbaa !4
  %18 = load i32, ptr %3, align 4, !tbaa !11
  %19 = add nsw i32 %18, 1
  call void @lua_settop(ptr noundef %17, i32 noundef %19)
  store ptr null, ptr %6, align 8, !tbaa !13
  store i32 0, ptr %4, align 4, !tbaa !11
  store i32 0, ptr %5, align 4, !tbaa !11
  br label %36

20:                                               ; preds = %1
  call void @llvm.lifetime.start.p0(i64 8, ptr %8) #6
  %21 = load ptr, ptr %2, align 8, !tbaa !4
  %22 = load i32, ptr %3, align 4, !tbaa !11
  %23 = add nsw i32 %22, 2
  %24 = call ptr @luaL_checklstring(ptr noundef %21, i32 noundef %23, ptr noundef null)
  store ptr %24, ptr %8, align 8, !tbaa !14
  %25 = load ptr, ptr %2, align 8, !tbaa !4
  %26 = load i32, ptr %3, align 4, !tbaa !11
  %27 = add nsw i32 %26, 1
  call void @luaL_checktype(ptr noundef %25, i32 noundef %27, i32 noundef 6)
  %28 = load ptr, ptr %2, align 8, !tbaa !4
  %29 = load i32, ptr %3, align 4, !tbaa !11
  %30 = add nsw i32 %29, 3
  %31 = call i64 @luaL_optinteger(ptr noundef %28, i32 noundef %30, i64 noundef 0)
  %32 = trunc i64 %31 to i32
  store i32 %32, ptr %5, align 4, !tbaa !11
  store ptr @hookf, ptr %6, align 8, !tbaa !13
  %33 = load ptr, ptr %8, align 8, !tbaa !14
  %34 = load i32, ptr %5, align 4, !tbaa !11
  %35 = call i32 @makemask(ptr noundef %33, i32 noundef %34)
  store i32 %35, ptr %4, align 4, !tbaa !11
  call void @llvm.lifetime.end.p0(i64 8, ptr %8) #6
  br label %36

36:                                               ; preds = %20, %16
  %37 = load ptr, ptr %2, align 8, !tbaa !4
  %38 = call i32 @luaL_getsubtable(ptr noundef %37, i32 noundef -1001000, ptr noundef @.str.22)
  %39 = icmp ne i32 %38, 0
  br i1 %39, label %47, label %40

40:                                               ; preds = %36
  %41 = load ptr, ptr %2, align 8, !tbaa !4
  %42 = call ptr @lua_pushstring(ptr noundef %41, ptr noundef @.str.53)
  %43 = load ptr, ptr %2, align 8, !tbaa !4
  call void @lua_setfield(ptr noundef %43, i32 noundef -2, ptr noundef @.str.54)
  %44 = load ptr, ptr %2, align 8, !tbaa !4
  call void @lua_pushvalue(ptr noundef %44, i32 noundef -1)
  %45 = load ptr, ptr %2, align 8, !tbaa !4
  %46 = call i32 @lua_setmetatable(ptr noundef %45, i32 noundef -2)
  br label %47

47:                                               ; preds = %40, %36
  %48 = load ptr, ptr %2, align 8, !tbaa !4
  %49 = load ptr, ptr %7, align 8, !tbaa !4
  call void @checkstack(ptr noundef %48, ptr noundef %49, i32 noundef 1)
  %50 = load ptr, ptr %7, align 8, !tbaa !4
  %51 = call i32 @lua_pushthread(ptr noundef %50)
  %52 = load ptr, ptr %7, align 8, !tbaa !4
  %53 = load ptr, ptr %2, align 8, !tbaa !4
  call void @lua_xmove(ptr noundef %52, ptr noundef %53, i32 noundef 1)
  %54 = load ptr, ptr %2, align 8, !tbaa !4
  %55 = load i32, ptr %3, align 4, !tbaa !11
  %56 = add nsw i32 %55, 1
  call void @lua_pushvalue(ptr noundef %54, i32 noundef %56)
  %57 = load ptr, ptr %2, align 8, !tbaa !4
  call void @lua_rawset(ptr noundef %57, i32 noundef -3)
  %58 = load ptr, ptr %7, align 8, !tbaa !4
  %59 = load ptr, ptr %6, align 8, !tbaa !13
  %60 = load i32, ptr %4, align 4, !tbaa !11
  %61 = load i32, ptr %5, align 4, !tbaa !11
  call void @lua_sethook(ptr noundef %58, ptr noundef %59, i32 noundef %60, i32 noundef %61)
  call void @llvm.lifetime.end.p0(i64 8, ptr %7) #6
  call void @llvm.lifetime.end.p0(i64 8, ptr %6) #6
  call void @llvm.lifetime.end.p0(i64 4, ptr %5) #6
  call void @llvm.lifetime.end.p0(i64 4, ptr %4) #6
  call void @llvm.lifetime.end.p0(i64 4, ptr %3) #6
  ret i32 0
}