; Function Attrs: nounwind uwtable
define internal noundef i32 @db_sethook(ptr noundef %0) #0 {
  %2 = tail call i32 @lua_type(ptr noundef %0, i32 noundef 1) #8
  %3 = icmp eq i32 %2, 8
  br i1 %3, label %4, label %getthread.exit

4:                                                ; preds = %1
  %5 = tail call ptr @lua_tothread(ptr noundef %0, i32 noundef 1) #8
  br label %getthread.exit

getthread.exit:                                   ; preds = %1, %4
  %.031 = phi i32 [ 1, %4 ], [ 0, %1 ]
  %.0.i = phi ptr [ %5, %4 ], [ %0, %1 ]
  %6 = add nuw nsw i32 %.031, 1
  %7 = tail call i32 @lua_type(ptr noundef %0, i32 noundef %6) #8
  %8 = icmp slt i32 %7, 1
  br i1 %8, label %9, label %10

9:                                                ; preds = %getthread.exit
  tail call void @lua_settop(ptr noundef %0, i32 noundef %6) #8
  br label %23

10:                                               ; preds = %getthread.exit
  %11 = or disjoint i32 %.031, 2
  %12 = tail call ptr @luaL_checklstring(ptr noundef %0, i32 noundef %11, ptr noundef null) #8
  tail call void @luaL_checktype(ptr noundef %0, i32 noundef %6, i32 noundef 6) #8
  %13 = add nuw nsw i32 %.031, 3
  %14 = tail call i64 @luaL_optinteger(ptr noundef %0, i32 noundef %13, i64 noundef 0) #8
  %15 = trunc i64 %14 to i32
  %16 = tail call ptr @strchr(ptr noundef nonnull readonly dereferenceable(1) %12, i32 noundef 99) #10
  %.not.i = icmp ne ptr %16, null
  %spec.select.i = zext i1 %.not.i to i32
  %17 = tail call ptr @strchr(ptr noundef nonnull readonly dereferenceable(1) %12, i32 noundef 114) #10
  %.not8.i = icmp eq ptr %17, null
  %18 = or disjoint i32 %spec.select.i, 2
  %.1.i = select i1 %.not8.i, i32 %spec.select.i, i32 %18
  %19 = tail call ptr @strchr(ptr noundef nonnull readonly dereferenceable(1) %12, i32 noundef 108) #10
  %.not9.i = icmp eq ptr %19, null
  %20 = or disjoint i32 %.1.i, 4
  %.2.i = select i1 %.not9.i, i32 %.1.i, i32 %20
  %21 = icmp sgt i32 %15, 0
  %22 = or disjoint i32 %.2.i, 8
  %.3.i = select i1 %21, i32 %22, i32 %.2.i
  br label %23

23:                                               ; preds = %10, %9
  %.024 = phi ptr [ null, %9 ], [ @hookf, %10 ]
  %.023 = phi i32 [ 0, %9 ], [ %15, %10 ]
  %.0 = phi i32 [ 0, %9 ], [ %.3.i, %10 ]
  %24 = tail call i32 @luaL_getsubtable(ptr noundef %0, i32 noundef -1001000, ptr noundef nonnull @.str.22) #8
  %.not = icmp eq i32 %24, 0
  br i1 %.not, label %25, label %28

25:                                               ; preds = %23
  %26 = tail call ptr @lua_pushstring(ptr noundef %0, ptr noundef nonnull @.str.53) #8
  tail call void @lua_setfield(ptr noundef %0, i32 noundef -2, ptr noundef nonnull @.str.54) #8
  tail call void @lua_pushvalue(ptr noundef %0, i32 noundef -1) #8
  %27 = tail call i32 @lua_setmetatable(ptr noundef %0, i32 noundef -2) #8
  br label %28

28:                                               ; preds = %25, %23
  %.not.i25 = icmp eq ptr %0, %.0.i
  br i1 %.not.i25, label %checkstack.exit, label %29

29:                                               ; preds = %28
  %30 = tail call i32 @lua_checkstack(ptr noundef %.0.i, i32 noundef 1) #8
  %.not4.i = icmp eq i32 %30, 0
  br i1 %.not4.i, label %31, label %checkstack.exit, !prof !9

31:                                               ; preds = %29
  %32 = tail call i32 (ptr, ptr, ...) @luaL_error(ptr noundef %0, ptr noundef nonnull @.str.28) #8
  br label %checkstack.exit

checkstack.exit:                                  ; preds = %28, %29, %31
  %33 = tail call i32 @lua_pushthread(ptr noundef %.0.i) #8
  tail call void @lua_xmove(ptr noundef %.0.i, ptr noundef %0, i32 noundef 1) #8
  tail call void @lua_pushvalue(ptr noundef %0, i32 noundef %6) #8
  tail call void @lua_rawset(ptr noundef %0, i32 noundef -3) #8
  tail call void @lua_sethook(ptr noundef %.0.i, ptr noundef %.024, i32 noundef %.0, i32 noundef %.023) #8
  ret i32 0
}